; Function Attrs: nounwind uwtable
define void @Gia_VtaSendAbsracted(ptr noundef readonly captures(none) %0, i32 %1) local_unnamed_addr #0 {
  %3 = load ptr, ptr %0, align 8, !tbaa !30
  %4 = getelementptr inbounds nuw i8, ptr %3, i64 456
  %5 = load ptr, ptr %4, align 8, !tbaa !160
  %6 = icmp eq ptr %5, null
  br i1 %6, label %Vec_IntFreeP.exit, label %7

7:                                                ; preds = %2
  %8 = getelementptr inbounds nuw i8, ptr %5, i64 8
  %9 = load ptr, ptr %8, align 8, !tbaa !3
  %.not.i = icmp eq ptr %9, null
  br i1 %.not.i, label %12, label %.thread.i

.thread.i:                                        ; preds = %7
  tail call void @free(ptr noundef nonnull %9) #28
  %10 = load ptr, ptr %4, align 8, !tbaa !160
  %11 = getelementptr inbounds nuw i8, ptr %10, i64 8
  store ptr null, ptr %11, align 8, !tbaa !3
  br label %12

12:                                               ; preds = %.thread.i, %7
  %13 = phi ptr [ %10, %.thread.i ], [ %5, %7 ]
  tail call void @free(ptr noundef nonnull %13) #28
  store ptr null, ptr %4, align 8, !tbaa !160
  br label %Vec_IntFreeP.exit

Vec_IntFreeP.exit:                                ; preds = %2, %12
  %14 = getelementptr inbounds nuw i8, ptr %0, i64 112
  %15 = load ptr, ptr %14, align 8, !tbaa !130
  %16 = tail call ptr @Gia_VtaFramesToAbs(ptr noundef %15)
  %17 = load ptr, ptr %0, align 8, !tbaa !30
  %18 = getelementptr inbounds nuw i8, ptr %17, i64 456
  store ptr %16, ptr %18, align 8, !tbaa !148
  %19 = getelementptr inbounds nuw i8, ptr %17, i64 448
  %20 = load ptr, ptr %19, align 8, !tbaa !160
  %21 = icmp eq ptr %20, null
  br i1 %21, label %Vec_IntFreeP.exit15, label %22

22:                                               ; preds = %Vec_IntFreeP.exit
  %23 = getelementptr inbounds nuw i8, ptr %20, i64 8
  %24 = load ptr, ptr %23, align 8, !tbaa !3
  %.not.i13 = icmp eq ptr %24, null
  br i1 %.not.i13, label %27, label %.thread.i14

.thread.i14:                                      ; preds = %22
  tail call void @free(ptr noundef nonnull %24) #28
  %25 = load ptr, ptr %19, align 8, !tbaa !160
  %26 = getelementptr inbounds nuw i8, ptr %25, i64 8
  store ptr null, ptr %26, align 8, !tbaa !3
  br label %27

27:                                               ; preds = %.thread.i14, %22
  %28 = phi ptr [ %25, %.thread.i14 ], [ %20, %22 ]
  tail call void @free(ptr noundef nonnull %28) #28
  store ptr null, ptr %19, align 8, !tbaa !160
  %.pre = load ptr, ptr %0, align 8, !tbaa !30
  %.phi.trans.insert = getelementptr inbounds nuw i8, ptr %.pre, i64 456
  %.pre22 = load ptr, ptr %.phi.trans.insert, align 8, !tbaa !148
  br label %Vec_IntFreeP.exit15

Vec_IntFreeP.exit15:                              ; preds = %Vec_IntFreeP.exit, %27
  %29 = phi ptr [ %16, %Vec_IntFreeP.exit ], [ %.pre22, %27 ]
  %30 = phi ptr [ %17, %Vec_IntFreeP.exit ], [ %.pre, %27 ]
  %31 = tail call ptr @Gia_VtaConvertToGla(ptr noundef nonnull %30, ptr noundef %29) #28
  %32 = load ptr, ptr %0, align 8, !tbaa !30
  %33 = getelementptr inbounds nuw i8, ptr %32, i64 448
  store ptr %31, ptr %33, align 8, !tbaa !168
  %34 = getelementptr inbounds nuw i8, ptr %32, i64 456
  %35 = load ptr, ptr %34, align 8, !tbaa !160
  %36 = icmp eq ptr %35, null
  br i1 %36, label %Vec_IntFreeP.exit18, label %37

37:                                               ; preds = %Vec_IntFreeP.exit15
  %38 = getelementptr inbounds nuw i8, ptr %35, i64 8
  %39 = load ptr, ptr %38, align 8, !tbaa !3
  %.not.i16 = icmp eq ptr %39, null
  br i1 %.not.i16, label %42, label %.thread.i17

.thread.i17:                                      ; preds = %37
  tail call void @free(ptr noundef nonnull %39) #28
  %40 = load ptr, ptr %34, align 8, !tbaa !160
  %41 = getelementptr inbounds nuw i8, ptr %40, i64 8
  store ptr null, ptr %41, align 8, !tbaa !3
  br label %42

42:                                               ; preds = %.thread.i17, %37
  %43 = phi ptr [ %40, %.thread.i17 ], [ %35, %37 ]
  tail call void @free(ptr noundef nonnull %43) #28
  store ptr null, ptr %34, align 8, !tbaa !160
  %.pre23 = load ptr, ptr %0, align 8, !tbaa !30
  %.phi.trans.insert24 = getelementptr inbounds nuw i8, ptr %.pre23, i64 448
  %.pre25 = load ptr, ptr %.phi.trans.insert24, align 8, !tbaa !168
  br label %Vec_IntFreeP.exit18

Vec_IntFreeP.exit18:                              ; preds = %Vec_IntFreeP.exit15, %42
  %44 = phi ptr [ %31, %Vec_IntFreeP.exit15 ], [ %.pre25, %42 ]
  %45 = phi ptr [ %32, %Vec_IntFreeP.exit15 ], [ %.pre23, %42 ]
  %46 = tail call ptr @Gia_ManDupAbsGates(ptr noundef nonnull %45, ptr noundef %44) #28
  %47 = load ptr, ptr %0, align 8, !tbaa !30
  %48 = getelementptr inbounds nuw i8, ptr %47, i64 448
  %49 = load ptr, ptr %48, align 8, !tbaa !160
  %50 = icmp eq ptr %49, null
  br i1 %50, label %Vec_IntFreeP.exit21, label %51

51:                                               ; preds = %Vec_IntFreeP.exit18
  %52 = getelementptr inbounds nuw i8, ptr %49, i64 8
  %53 = load ptr, ptr %52, align 8, !tbaa !3
  %.not.i19 = icmp eq ptr %53, null
  br i1 %.not.i19, label %56, label %.thread.i20

.thread.i20:                                      ; preds = %51
  tail call void @free(ptr noundef nonnull %53) #28
  %54 = load ptr, ptr %48, align 8, !tbaa !160
  %55 = getelementptr inbounds nuw i8, ptr %54, i64 8
  store ptr null, ptr %55, align 8, !tbaa !3
  br label %56

56:                                               ; preds = %.thread.i20, %51
  %57 = phi ptr [ %54, %.thread.i20 ], [ %49, %51 ]
  tail call void @free(ptr noundef nonnull %57) #28
  store ptr null, ptr %48, align 8, !tbaa !160
  br label %Vec_IntFreeP.exit21

Vec_IntFreeP.exit21:                              ; preds = %Vec_IntFreeP.exit18, %56
  %58 = load ptr, ptr @stdout, align 8, !tbaa !97
  %59 = tail call i32 @Gia_ManToBridgeAbsNetlist(ptr noundef %58, ptr noundef %46, i32 noundef 107) #28
  tail call void @Gia_ManStop(ptr noundef %46) #28
  ret void
}